c__builtin__
set
p1
((lp2
Vhttp://baike.baidu.com/item/%E5%88%87%E5%8F%B6%E8%9A%81
p3
aVhttp://baike.baidu.com/item/%E5%A4%8D%E7%9C%BC
p4
aVhttp://baike.baidu.com/item/%E4%B9%89%E9%A1%B9
p5
aVhttp://baike.baidu.com/item/%E8%9C%82%E8%9C%9C/24842
p6
aVhttp://baike.baidu.com/item/%E5%A4%A7%E9%BD%BF%E7%8C%9B%E8%9A%81
p7
aVhttp://baike.baidu.com/item/%E6%94%B6%E8%8E%B7%E8%9A%81%E5%B1%9E
p8
aVhttp://baike.baidu.com/item/%E9%98%BF%E6%A0%B9%E5%BB%B7%E8%9A%81
p9
aVhttp://baike.baidu.com/item/%E7%8C%9B%E8%9A%81
p10
aVhttp://baike.baidu.com/item/%E8%9A%82%E8%9A%81/13832878#viewPageContent
p11
aVhttp://baike.baidu.com/item/%E7%94%9F%E6%AE%96
p12
aVhttp://baike.baidu.com/item/%E8%A1%8C%E5%86%9B%E8%9A%81
p13
aVhttp://baike.baidu.com/item/%E8%A5%BF%E7%93%9C/333718
p14
aVhttp://baike.baidu.com/item/%E6%B4%97%E8%A1%A3%E7%B2%89/2279
p15
aVhttp://baike.baidu.com/item/%E6%98%86%E8%99%AB
p16
aVhttp://baike.baidu.com/item/%E8%86%9C%E7%BF%85%E7%9B%AE
p17
aVhttp://baike.baidu.com/item/%E8%9A%82%E8%9A%81/19584566#viewPageContent
p18
aVhttp://baike.baidu.com/item/%E9%BA%A6%E8%8A%BD%E7%B3%96
p19
aVhttp://baike.baidu.com/item/%E7%9F%B3%E8%85%8A
p20
aVhttp://baike.baidu.com/item/%E8%9A%82%E8%9A%81/16171502#viewPageContent
p21
aVhttp://baike.baidu.com/item/%E8%9A%82%E8%9A%81/22143790#viewPageContent
p22
aVhttp://baike.baidu.com/item/%E7%99%BE%E5%BA%A6%E7%99%BE%E7%A7%91%EF%BC%9A%E5%A4%9A%E4%B9%89%E8%AF%8D
p23
aVhttp://baike.baidu.com/item/%E8%9A%AF%E8%9A%93
p24
aVhttp://baike.baidu.com/item/%E8%9A%82%E8%9A%81/20195109#viewPageContent
p25
aVhttp://baike.baidu.com/item/%E5%BB%BA%E7%AD%91/14664059
p26
aVhttp://baike.baidu.com/item/%E6%B0%A8%E5%9F%BA%E9%85%B8%E5%88%86%E6%9E%90%E4%BB%AA
p27
aVhttp://baike.baidu.com/item/%E8%9A%82%E8%9A%81/9770165#viewPageContent
p28
atRp29
.